; Function Attrs: nounwind uwtable
define void @Acec_ParseSignatureMono(ptr noundef readonly %0, ptr noundef readnone %1, ptr noundef captures(none) %2) local_unnamed_addr #0 {
  %4 = load i8, ptr %0, align 1
  %5 = icmp eq i8 %4, 45
  %6 = icmp eq i8 %4, 43
  %7 = icmp eq i8 %4, 40
  %8 = or i1 %6, %7
  %or.cond = or i1 %5, %8
  %.0.idx = zext i1 %or.cond to i64
  %.0 = getelementptr inbounds nuw i8, ptr %0, i64 %.0.idx
  %9 = icmp ult ptr %.0, %1
  br i1 %9, label %.lr.ph, label %._crit_edge

.lr.ph:                                           ; preds = %3
  %10 = getelementptr inbounds nuw i8, ptr %2, i64 4
  %.phi.trans.insert.i29 = getelementptr inbounds nuw i8, ptr %2, i64 8
  br label %11

11:                                               ; preds = %.lr.ph, %.critedge
  %.143 = phi ptr [ %.0, %.lr.ph ], [ %83, %.critedge ]
  %.02242 = phi i32 [ 1000000000, %.lr.ph ], [ %.123, %.critedge ]
  %12 = load i8, ptr %.143, align 1
  switch i8 %12, label %76 [
    i8 105, label %13
    i8 111, label %45
  ]

13:                                               ; preds = %11
  %14 = getelementptr inbounds nuw i8, ptr %.143, i64 1
  %15 = tail call i32 @atoi(ptr noundef nonnull %14) #23
  %16 = xor i32 %15, -1
  %17 = load i32, ptr %10, align 4
  %18 = load i32, ptr %2, align 8
  %19 = icmp eq i32 %17, %18
  br i1 %19, label %20, label %.Vec_IntGrow.exit10_crit_edge.i

.Vec_IntGrow.exit10_crit_edge.i:                  ; preds = %13
  %.pre.i = load ptr, ptr %.phi.trans.insert.i29, align 8
  br label %Vec_IntPush.exit

20:                                               ; preds = %13
  %21 = icmp slt i32 %17, 16
  br i1 %21, label %22, label %29

22:                                               ; preds = %20
  %23 = load ptr, ptr %.phi.trans.insert.i29, align 8
  %.not9.i.i = icmp eq ptr %23, null
  br i1 %.not9.i.i, label %26, label %24

24:                                               ; preds = %22
  %25 = tail call dereferenceable_or_null(64) ptr @realloc(ptr noundef nonnull %23, i64 noundef 64) #24
  br label %Vec_IntGrow.exit.i

26:                                               ; preds = %22
  %27 = tail call noalias dereferenceable_or_null(64) ptr @malloc(i64 noundef 64) #25
  br label %Vec_IntGrow.exit.i

Vec_IntGrow.exit.i:                               ; preds = %26, %24
  %28 = phi ptr [ %25, %24 ], [ %27, %26 ]
  store ptr %28, ptr %.phi.trans.insert.i29, align 8
  store i32 16, ptr %2, align 8
  br label %Vec_IntPush.exit

29:                                               ; preds = %20
  %30 = shl nuw nsw i32 %17, 1
  %31 = load ptr, ptr %.phi.trans.insert.i29, align 8
  %.not9.i9.i = icmp eq ptr %31, null
  %32 = zext nneg i32 %30 to i64
  %33 = shl nuw nsw i64 %32, 2
  br i1 %.not9.i9.i, label %36, label %34

34:                                               ; preds = %29
  %35 = tail call ptr @realloc(ptr noundef nonnull %31, i64 noundef %33) #24
  br label %38

36:                                               ; preds = %29
  %37 = tail call noalias ptr @malloc(i64 noundef %33) #25
  br label %38

38:                                               ; preds = %36, %34
  %39 = phi ptr [ %35, %34 ], [ %37, %36 ]
  store ptr %39, ptr %.phi.trans.insert.i29, align 8
  store i32 %30, ptr %2, align 8
  br label %Vec_IntPush.exit

Vec_IntPush.exit:                                 ; preds = %.Vec_IntGrow.exit10_crit_edge.i, %Vec_IntGrow.exit.i, %38
  %40 = phi ptr [ %.pre.i, %.Vec_IntGrow.exit10_crit_edge.i ], [ %39, %38 ], [ %28, %Vec_IntGrow.exit.i ]
  %41 = load i32, ptr %10, align 4
  %42 = add nsw i32 %41, 1
  store i32 %42, ptr %10, align 4
  %43 = sext i32 %41 to i64
  %44 = getelementptr inbounds i32, ptr %40, i64 %43
  store i32 %16, ptr %44, align 4
  br label %79

45:                                               ; preds = %11
  %46 = getelementptr inbounds nuw i8, ptr %.143, i64 1
  %47 = tail call i32 @atoi(ptr noundef nonnull %46) #23
  %48 = load i32, ptr %10, align 4
  %49 = load i32, ptr %2, align 8
  %50 = icmp eq i32 %48, %49
  br i1 %50, label %51, label %.Vec_IntGrow.exit10_crit_edge.i28

.Vec_IntGrow.exit10_crit_edge.i28:                ; preds = %45
  %.pre.i30 = load ptr, ptr %.phi.trans.insert.i29, align 8
  br label %Vec_IntPush.exit34

51:                                               ; preds = %45
  %52 = icmp slt i32 %48, 16
  br i1 %52, label %53, label %60

53:                                               ; preds = %51
  %54 = load ptr, ptr %.phi.trans.insert.i29, align 8
  %.not9.i.i32 = icmp eq ptr %54, null
  br i1 %.not9.i.i32, label %57, label %55

55:                                               ; preds = %53
  %56 = tail call dereferenceable_or_null(64) ptr @realloc(ptr noundef nonnull %54, i64 noundef 64) #24
  br label %Vec_IntGrow.exit.i33

57:                                               ; preds = %53
  %58 = tail call noalias dereferenceable_or_null(64) ptr @malloc(i64 noundef 64) #25
  br label %Vec_IntGrow.exit.i33

Vec_IntGrow.exit.i33:                             ; preds = %57, %55
  %59 = phi ptr [ %56, %55 ], [ %58, %57 ]
  store ptr %59, ptr %.phi.trans.insert.i29, align 8
  store i32 16, ptr %2, align 8
  br label %Vec_IntPush.exit34

60:                                               ; preds = %51
  %61 = shl nuw nsw i32 %48, 1
  %62 = load ptr, ptr %.phi.trans.insert.i29, align 8
  %.not9.i9.i31 = icmp eq ptr %62, null
  %63 = zext nneg i32 %61 to i64
  %64 = shl nuw nsw i64 %63, 2
  br i1 %.not9.i9.i31, label %67, label %65

65:                                               ; preds = %60
  %66 = tail call ptr @realloc(ptr noundef nonnull %62, i64 noundef %64) #24
  br label %69

67:                                               ; preds = %60
  %68 = tail call noalias ptr @malloc(i64 noundef %64) #25
  br label %69

69:                                               ; preds = %67, %65
  %70 = phi ptr [ %66, %65 ], [ %68, %67 ]
  store ptr %70, ptr %.phi.trans.insert.i29, align 8
  store i32 %61, ptr %2, align 8
  br label %Vec_IntPush.exit34

Vec_IntPush.exit34:                               ; preds = %.Vec_IntGrow.exit10_crit_edge.i28, %Vec_IntGrow.exit.i33, %69
  %71 = phi ptr [ %.pre.i30, %.Vec_IntGrow.exit10_crit_edge.i28 ], [ %70, %69 ], [ %59, %Vec_IntGrow.exit.i33 ]
  %72 = load i32, ptr %10, align 4
  %73 = add nsw i32 %72, 1
  store i32 %73, ptr %10, align 4
  %74 = sext i32 %72 to i64
  %75 = getelementptr inbounds i32, ptr %71, i64 %74
  store i32 %47, ptr %75, align 4
  br label %79

76:                                               ; preds = %11
  %77 = tail call i32 @atoi(ptr noundef nonnull %.143) #23
  %78 = add nsw i32 %77, 1
  br label %79

79:                                               ; preds = %Vec_IntPush.exit34, %76, %Vec_IntPush.exit
  %.123 = phi i32 [ %.02242, %Vec_IntPush.exit ], [ %.02242, %Vec_IntPush.exit34 ], [ %78, %76 ]
  %.2 = phi ptr [ %14, %Vec_IntPush.exit ], [ %46, %Vec_IntPush.exit34 ], [ %.143, %76 ]
  br label %80

80:                                               ; preds = %80, %79
  %.3 = phi ptr [ %.2, %79 ], [ %83, %80 ]
  %81 = load i8, ptr %.3, align 1
  %82 = add i8 %81, -48
  %or.cond27 = icmp ult i8 %82, 10
  %83 = getelementptr inbounds nuw i8, ptr %.3, i64 1
  br i1 %or.cond27, label %80, label %.critedge, !llvm.loop !4

.critedge:                                        ; preds = %80
  %84 = icmp ult ptr %83, %1
  br i1 %84, label %11, label %._crit_edge, !llvm.loop !6

._crit_edge:                                      ; preds = %.critedge, %3
  %.022.lcssa = phi i32 [ 1000000000, %3 ], [ %.123, %.critedge ]
  %85 = getelementptr inbounds nuw i8, ptr %2, i64 4
  %86 = load i32, ptr %85, align 4
  %87 = load i32, ptr %2, align 8
  %88 = icmp eq i32 %86, %87
  br i1 %88, label %89, label %.Vec_IntGrow.exit10_crit_edge.i35

.Vec_IntGrow.exit10_crit_edge.i35:                ; preds = %._crit_edge
  %.phi.trans.insert.i36 = getelementptr inbounds nuw i8, ptr %2, i64 8
  %.pre.i37 = load ptr, ptr %.phi.trans.insert.i36, align 8
  br label %Vec_IntPush.exit41

89:                                               ; preds = %._crit_edge
  %90 = icmp slt i32 %86, 16
  br i1 %90, label %91, label %99

91:                                               ; preds = %89
  %92 = getelementptr inbounds nuw i8, ptr %2, i64 8
  %93 = load ptr, ptr %92, align 8
  %.not9.i.i39 = icmp eq ptr %93, null
  br i1 %.not9.i.i39, label %96, label %94

94:                                               ; preds = %91
  %95 = tail call dereferenceable_or_null(64) ptr @realloc(ptr noundef nonnull %93, i64 noundef 64) #24
  br label %Vec_IntGrow.exit.i40

96:                                               ; preds = %91
  %97 = tail call noalias dereferenceable_or_null(64) ptr @malloc(i64 noundef 64) #25
  br label %Vec_IntGrow.exit.i40

Vec_IntGrow.exit.i40:                             ; preds = %96, %94
  %98 = phi ptr [ %95, %94 ], [ %97, %96 ]
  store ptr %98, ptr %92, align 8
  store i32 16, ptr %2, align 8
  br label %Vec_IntPush.exit41

99:                                               ; preds = %89
  %100 = shl nuw nsw i32 %86, 1
  %101 = getelementptr inbounds nuw i8, ptr %2, i64 8
  %102 = load ptr, ptr %101, align 8
  %.not9.i9.i38 = icmp eq ptr %102, null
  %103 = zext nneg i32 %100 to i64
  %104 = shl nuw nsw i64 %103, 2
  br i1 %.not9.i9.i38, label %107, label %105

105:                                              ; preds = %99
  %106 = tail call ptr @realloc(ptr noundef nonnull %102, i64 noundef %104) #24
  br label %109

107:                                              ; preds = %99
  %108 = tail call noalias ptr @malloc(i64 noundef %104) #25
  br label %109

109:                                              ; preds = %107, %105
  %110 = phi ptr [ %106, %105 ], [ %108, %107 ]
  store ptr %110, ptr %101, align 8
  store i32 %100, ptr %2, align 8
  br label %Vec_IntPush.exit41

Vec_IntPush.exit41:                               ; preds = %.Vec_IntGrow.exit10_crit_edge.i35, %Vec_IntGrow.exit.i40, %109
  %111 = phi ptr [ %.pre.i37, %.Vec_IntGrow.exit10_crit_edge.i35 ], [ %110, %109 ], [ %98, %Vec_IntGrow.exit.i40 ]
  %112 = sub nsw i32 0, %.022.lcssa
  %113 = select i1 %5, i32 %112, i32 %.022.lcssa
  %114 = load i32, ptr %85, align 4
  %115 = add nsw i32 %114, 1
  store i32 %115, ptr %85, align 4
  %116 = sext i32 %114 to i64
  %117 = getelementptr inbounds i32, ptr %111, i64 %116
  store i32 %113, ptr %117, align 4
  ret void
}